; Function Attrs: nofree norecurse nosync nounwind memory(write, inaccessiblemem: none) uwtable
define i32 @SetBitString(i32 noundef %0, i8 noundef zeroext %1, ptr noundef writeonly captures(address_is_null) %2) local_unnamed_addr #10 {
  %.not = icmp eq ptr %2, null
  br i1 %.not, label %4, label %.thread

4:                                                ; preds = %3
  %5 = add i32 %0, 1
  %6 = icmp ult i32 %5, 128
  br i1 %6, label %SetLength.exit.thread, label %.preheader.i.preheader

.thread:                                          ; preds = %3
  store i8 3, ptr %2, align 1, !tbaa !3
  %7 = add i32 %0, 1
  %8 = getelementptr inbounds nuw i8, ptr %2, i64 1
  %9 = icmp ult i32 %7, 128
  br i1 %9, label %10, label %.preheader.i.preheader

.preheader.i.preheader:                           ; preds = %4, %.thread
  %.ph = phi ptr [ %8, %.thread ], [ null, %4 ]
  %.ph21 = phi i32 [ %7, %.thread ], [ %5, %4 ]
  br label %.preheader.i

10:                                               ; preds = %.thread
  %11 = trunc nuw nsw i32 %7 to i8
  store i8 %11, ptr %8, align 1, !tbaa !3
  br label %SetLength.exit.thread18

.preheader.i:                                     ; preds = %.preheader.i.preheader, %15
  %.06.i.i = phi i32 [ %16, %15 ], [ 4, %.preheader.i.preheader ]
  %12 = shl i32 %.06.i.i, 3
  %13 = add nsw i32 %12, -8
  %14 = lshr i32 %.ph21, %13
  %.not5.i.i = icmp eq i32 %14, 0
  br i1 %.not5.i.i, label %15, label %BytePrecision.exit.i

15:                                               ; preds = %.preheader.i
  %16 = add nsw i32 %.06.i.i, -1
  %.not.i.i = icmp eq i32 %16, 0
  br i1 %.not.i.i, label %BytePrecision.exit.i, label %.preheader.i, !llvm.loop !6

BytePrecision.exit.i:                             ; preds = %15, %.preheader.i
  %.0.lcssa.i.i = phi i32 [ %.06.i.i, %.preheader.i ], [ 0, %15 ]
  %17 = trunc i32 %.0.lcssa.i.i to i8
  br i1 %.not, label %18, label %.thread.i

18:                                               ; preds = %BytePrecision.exit.i
  %.not2628.i = icmp eq i8 %17, 0
  br i1 %.not2628.i, label %SetLength.exit.thread, label %.lr.ph.split.us.preheader.i

.thread.i:                                        ; preds = %BytePrecision.exit.i
  %19 = or i8 %17, -128
  store i8 %19, ptr %.ph, align 1, !tbaa !3
  %.not262836.i = icmp eq i8 %17, 0
  br i1 %.not262836.i, label %SetLength.exit.thread18, label %.lr.ph.split.i

.lr.ph.split.us.preheader.i:                      ; preds = %18
  %20 = add i32 %.0.lcssa.i.i, 255
  %21 = and i32 %20, 255
  %22 = add nuw nsw i32 %21, 2
  br label %SetLength.exit.thread

.lr.ph.split.i:                                   ; preds = %.thread.i, %.lr.ph.split.i
  %indvars.iv33.i = phi i64 [ %indvars.iv.next34.i, %.lr.ph.split.i ], [ 1, %.thread.i ]
  %indvars.iv.i = phi i32 [ %indvars.iv.next.i, %.lr.ph.split.i ], [ %.0.lcssa.i.i, %.thread.i ]
  %23 = shl nuw nsw i32 %indvars.iv.i, 3
  %24 = add nsw i32 %23, -8
  %25 = lshr i32 %.ph21, %24
  %26 = trunc i32 %25 to i8
  %27 = getelementptr inbounds nuw i8, ptr %.ph, i64 %indvars.iv33.i
  store i8 %26, ptr %27, align 1, !tbaa !3
  %indvars.iv.next34.i = add nuw nsw i64 %indvars.iv33.i, 1
  %indvars.iv.next.i = add nsw i32 %indvars.iv.i, -1
  %.not26.wide.i = icmp eq i32 %indvars.iv.next.i, 0
  br i1 %.not26.wide.i, label %SetLength.exit, label %.lr.ph.split.i, !llvm.loop !48

SetLength.exit:                                   ; preds = %.lr.ph.split.i
  %28 = trunc nuw nsw i64 %indvars.iv.next34.i to i32
  br label %SetLength.exit.thread18

SetLength.exit.thread18:                          ; preds = %SetLength.exit, %.thread.i, %10
  %.020.i20 = phi i32 [ %28, %SetLength.exit ], [ 1, %10 ], [ 1, %.thread.i ]
  %29 = add i32 %.020.i20, 1
  %30 = zext i32 %29 to i64
  %31 = getelementptr inbounds nuw i8, ptr %2, i64 %30
  store i8 %1, ptr %31, align 1, !tbaa !3
  br label %SetLength.exit.thread

SetLength.exit.thread:                            ; preds = %4, %.lr.ph.split.us.preheader.i, %18, %SetLength.exit.thread18
  %.020.i16 = phi i32 [ %.020.i20, %SetLength.exit.thread18 ], [ %22, %.lr.ph.split.us.preheader.i ], [ 1, %18 ], [ 1, %4 ]
  %32 = add i32 %.020.i16, 2
  ret i32 %32
}